target datalayout = "e-m:e-p270:32:32-p271:32:32-p272:64:64-i64:64-i128:128-f80:128-n8:16:32:64-S128"
target triple = "x86_64-pc-linux-gnu"

; Function Attrs: mustprogress uwtable
define void @_ZN26MLSceneGLSharedDataContext24initPerMeshViewRequestedEiP10QGLContextRK15MLRenderingData(ptr noundef nonnull align 8 dereferenceable(168) %0, i32 noundef %1, ptr noundef %2, ptr noundef nonnull align 8 dereferenceable(40) %3) #5 align 2 {
  %5 = alloca ptr, align 8
  %6 = alloca i32, align 4
  %7 = alloca ptr, align 8
  %8 = alloca ptr, align 8
  store ptr %0, ptr %5, align 8
  store i32 %1, ptr %6, align 4
  store ptr %2, ptr %7, align 8
  store ptr %3, ptr %8, align 8
  %9 = load ptr, ptr %5, align 8
  %10 = load ptr, ptr %7, align 8
  call void @_ZN26MLSceneGLSharedDataContext7addViewEP10QGLContext(ptr noundef nonnull align 8 dereferenceable(168) %9, ptr noundef %10)
  %11 = load i32, ptr %6, align 4
  %12 = load ptr, ptr %7, align 8
  %13 = load ptr, ptr %8, align 8
  call void @_ZN26MLSceneGLSharedDataContext27setRenderingDataPerMeshViewEiP10QGLContextRK15MLRenderingData(ptr noundef nonnull align 8 dereferenceable(168) %9, i32 noundef %11, ptr noundef %12, ptr noundef nonnull align 8 dereferenceable(40) %13)
  %14 = load i32, ptr %6, align 4
  %15 = call noundef zeroext i1 @_ZN26MLSceneGLSharedDataContext13manageBuffersEi(ptr noundef nonnull align 8 dereferenceable(168) %9, i32 noundef %14)
  ret void
}

; Function Attrs: mustprogress uwtable
define void @_ZN26MLSceneGLSharedDataContext22requestInitPerMeshViewEP7QThreadiP10QGLContextRK15MLRenderingData(ptr noundef nonnull align 8 dereferenceable(168) %0, ptr noundef %1, i32 noundef %2, ptr noundef %3, ptr noundef nonnull align 8 dereferenceable(40) %4) #5 align 2 {
  %6 = alloca ptr, align 8
  %7 = alloca ptr, align 8
  %8 = alloca i32, align 4
  %9 = alloca ptr, align 8
  %10 = alloca ptr, align 8
  %11 = alloca ptr, align 8
  store ptr %0, ptr %6, align 8
  store ptr %1, ptr %7, align 8
  store i32 %2, ptr %8, align 4
  store ptr %3, ptr %9, align 8
  store ptr %4, ptr %10, align 8
  %12 = load ptr, ptr %6, align 8
  %13 = call noundef ptr @_ZNK7QObject6threadEv(ptr noundef nonnull align 8 dereferenceable(16) %12)
  store ptr %13, ptr %11, align 8
  %14 = load ptr, ptr %7, align 8
  %15 = load ptr, ptr %11, align 8
  %16 = icmp ne ptr %14, %15
  br i1 %16, label %17, label %21

17:                                               ; preds = %5
  %18 = load i32, ptr %8, align 4
  %19 = load ptr, ptr %9, align 8
  %20 = load ptr, ptr %10, align 8
  call void @_ZN26MLSceneGLSharedDataContext24initPerMeshViewRequestMTEiP10QGLContextRK15MLRenderingData(ptr noundef nonnull align 8 dereferenceable(168) %12, i32 noundef %18, ptr noundef %19, ptr noundef nonnull align 8 dereferenceable(40) %20)
  br label %25

21:                                               ; preds = %5
  %22 = load i32, ptr %8, align 4
  %23 = load ptr, ptr %9, align 8
  %24 = load ptr, ptr %10, align 8
  call void @_ZN26MLSceneGLSharedDataContext24initPerMeshViewRequestedEiP10QGLContextRK15MLRenderingData(ptr noundef nonnull align 8 dereferenceable(168) %12, i32 noundef %22, ptr noundef %23, ptr noundef nonnull align 8 dereferenceable(40) %24)
  br label %25

25:                                               ; preds = %21, %17
  ret void
}