; Function Attrs: mustprogress uwtable
define void @_ZN26MLSceneGLSharedDataContext22requestInitPerMeshViewEP7QThreadiP10QGLContextRK15MLRenderingData(ptr noundef nonnull align 8 dereferenceable(168) %0, ptr noundef readnone %1, i32 noundef %2, ptr noundef %3, ptr noundef nonnull align 8 dereferenceable(40) %4) local_unnamed_addr #9 align 2 {
  %6 = tail call noundef ptr @_ZNK7QObject6threadEv(ptr noundef nonnull align 8 dereferenceable(16) %0)
  %.not = icmp eq ptr %6, %1
  br i1 %.not, label %8, label %7

7:                                                ; preds = %5
  tail call void @_ZN26MLSceneGLSharedDataContext24initPerMeshViewRequestMTEiP10QGLContextRK15MLRenderingData(ptr noundef nonnull align 8 dereferenceable(168) %0, i32 noundef %2, ptr noundef %3, ptr noundef nonnull align 8 dereferenceable(40) %4)
  br label %10

8:                                                ; preds = %5
  tail call void @_ZN26MLSceneGLSharedDataContext7addViewEP10QGLContext(ptr noundef nonnull align 8 dereferenceable(168) %0, ptr noundef %3)
  tail call void @_ZN26MLSceneGLSharedDataContext27setRenderingDataPerMeshViewEiP10QGLContextRK15MLRenderingData(ptr noundef nonnull align 8 dereferenceable(168) %0, i32 noundef %2, ptr noundef %3, ptr noundef nonnull align 8 dereferenceable(40) %4)
  %9 = tail call noundef zeroext i1 @_ZN26MLSceneGLSharedDataContext13manageBuffersEi(ptr noundef nonnull align 8 dereferenceable(168) %0, i32 noundef %2)
  br label %10

10:                                               ; preds = %8, %7
  ret void
}